; Function Attrs: mustprogress nounwind uwtable
define dso_local void @_ZN4llvm20RISCVAttributeParser9atomicAbiEj(ptr dead_on_unwind noalias nocapture writable writeonly sret(%"class.llvm::Error") align 8 %0, ptr noundef nonnull align 8 dereferenceable(200) %1, i32 noundef %2) #1 align 2 {
  %4 = alloca [21 x i8], align 16
  %5 = alloca %"class.std::allocator.16", align 1
  %6 = alloca %"class.std::__cxx11::basic_string", align 8
  %7 = alloca %"class.std::__cxx11::basic_string", align 8
  %8 = getelementptr inbounds nuw i8, ptr %1, i64 160
  %9 = getelementptr inbounds nuw i8, ptr %1, i64 184
  %10 = getelementptr inbounds i8, ptr %1, i64 192
  %11 = tail call noundef i64 @_ZNK4llvm13DataExtractor10getULEB128EPmPNS_5ErrorE(ptr noundef nonnull align 8 dereferenceable(18) %8, ptr noundef nonnull %9, ptr noundef nonnull %10) #8
  tail call void @llvm.experimental.noalias.scope.decl(metadata !15)
  call void @llvm.lifetime.start.p0(i64 21, ptr nonnull %4)
  call void @llvm.lifetime.start.p0(i64 1, ptr nonnull %5)
  %12 = getelementptr inbounds i8, ptr %4, i64 21
  %13 = icmp eq i64 %11, 0
  br i1 %13, label %.thread.i, label %.lr.ph.i

.thread.i:                                        ; preds = %3
  %14 = getelementptr inbounds i8, ptr %4, i64 20
  store i8 48, ptr %14, align 4, !noalias !15
  br label %_ZN4llvm12ErrorSuccessD2Ev.exit

.lr.ph.i:                                         ; preds = %3, %.lr.ph.i
  %.111.i = phi ptr [ %18, %.lr.ph.i ], [ %12, %3 ]
  %.0810.i = phi i64 [ %19, %.lr.ph.i ], [ %11, %3 ]
  %15 = urem i64 %.0810.i, 10
  %16 = trunc nuw nsw i64 %15 to i8
  %17 = or disjoint i8 %16, 48
  %18 = getelementptr inbounds i8, ptr %.111.i, i64 -1
  store i8 %17, ptr %18, align 1, !noalias !15
  %19 = udiv i64 %.0810.i, 10
  %.not.i = icmp ult i64 %.0810.i, 10
  br i1 %.not.i, label %_ZN4llvm12ErrorSuccessD2Ev.exit, label %.lr.ph.i, !llvm.loop !7

_ZN4llvm12ErrorSuccessD2Ev.exit:                  ; preds = %.lr.ph.i, %.thread.i
  %.1.lcssa.i = phi ptr [ %14, %.thread.i ], [ %18, %.lr.ph.i ]
  %20 = trunc i64 %11 to i32
  call void @_ZNSaIcEC1Ev(ptr noundef nonnull align 1 dereferenceable(1) %5) #8, !noalias !15
  %21 = call noundef ptr @_ZNSt7__cxx1112basic_stringIcSt11char_traitsIcESaIcEE13_M_local_dataEv(ptr noundef nonnull align 8 dereferenceable(32) %7) #8
  call void @_ZNSt7__cxx1112basic_stringIcSt11char_traitsIcESaIcEE12_Alloc_hiderC1EPcRKS3_(ptr noundef nonnull align 8 dereferenceable(8) %7, ptr noundef %21, ptr noundef nonnull align 1 dereferenceable(1) %5) #8
  %22 = getelementptr inbounds nuw i8, ptr %7, i64 8
  store i64 0, ptr %22, align 8, !alias.scope !15
  call void @_ZNSt7__cxx1112basic_stringIcSt11char_traitsIcESaIcEE12_M_constructIPcEEvT_S7_St20forward_iterator_tag(ptr noundef nonnull align 8 dereferenceable(32) %7, ptr noundef nonnull %.1.lcssa.i, ptr noundef nonnull %12)
  call void @_ZNSaIcED1Ev(ptr noundef nonnull align 1 dereferenceable(1) %5) #8
  call void @llvm.lifetime.end.p0(i64 21, ptr nonnull %4)
  call void @llvm.lifetime.end.p0(i64 1, ptr nonnull %5)
  %23 = call noundef nonnull align 8 dereferenceable(32) ptr @_ZNSt7__cxx1112basic_stringIcSt11char_traitsIcESaIcEE6insertEmPKc(ptr noundef nonnull align 8 dereferenceable(32) %7, i64 noundef 0, ptr noundef nonnull @.str) #8, !noalias !18
  call void @_ZNSt7__cxx1112basic_stringIcSt11char_traitsIcESaIcEEC1EOS4_(ptr noundef nonnull align 8 dereferenceable(32) %6, ptr noundef nonnull align 8 dereferenceable(32) %23) #8
  %24 = call noundef ptr @_ZNKSt7__cxx1112basic_stringIcSt11char_traitsIcESaIcEE4dataEv(ptr noundef nonnull align 8 dereferenceable(32) %6) #8
  %25 = call noundef i64 @_ZNKSt7__cxx1112basic_stringIcSt11char_traitsIcESaIcEE6lengthEv(ptr noundef nonnull align 8 dereferenceable(32) %6) #8
  call void @_ZN4llvm18ELFAttributeParser14printAttributeEjjNS_9StringRefE(ptr noundef nonnull align 8 dereferenceable(200) %1, i32 noundef %2, i32 noundef %20, ptr %24, i64 %25) #8
  call void @_ZNSt7__cxx1112basic_stringIcSt11char_traitsIcESaIcEED1Ev(ptr noundef nonnull align 8 dereferenceable(32) %6) #8
  call void @_ZNSt7__cxx1112basic_stringIcSt11char_traitsIcESaIcEED1Ev(ptr noundef nonnull align 8 dereferenceable(32) %7) #8
  store ptr null, ptr %0, align 8
  ret void
}